target datalayout = "e-m:e-p270:32:32-p271:32:32-p272:64:64-i64:64-i128:128-f80:128-n8:16:32:64-S128"
target triple = "x86_64-pc-linux-gnu"

%struct.client = type { i64, i64, ptr, i8, i8, i8, i8, i32, ptr, ptr, ptr, ptr, ptr, i64, i64, i32, ptr, i32, i32, ptr, i64, ptr, ptr, ptr, ptr, ptr, i32, i32, i64, ptr, i64, ptr, i64, i64, i64, i32, ptr, i64, i64, i32, i32, i32, i32, i64, i64, ptr, i64, i64, i64, i64, i64, i64, i64, i64, [41 x i8], i32, ptr, i32, i32, i64, %struct.multiState, %struct.blockingState, i64, ptr, ptr, ptr, ptr, ptr, ptr, ptr, ptr, ptr, ptr, ptr, ptr, ptr, ptr, i64, ptr, i64, i32, ptr, ptr, ptr, i64, %struct.listNode, i64, i64, i32, i64, ptr }
%struct.multiState = type { ptr, i32, i32, i32, i64, i32 }
%struct.blockingState = type { i32, i64, i32, ptr, i32, i32, i64, ptr, ptr, i64 }
%struct.listNode = type { ptr, ptr, ptr }

; Function Attrs: nounwind uwtable
define dso_local void @ttlGenericCommand(ptr noundef %0, i32 noundef %1, i32 noundef %2) #0 {
  %4 = alloca ptr, align 8
  %5 = alloca i32, align 4
  %6 = alloca i32, align 4
  %7 = alloca i64, align 8
  %8 = alloca i64, align 8
  %9 = alloca i32, align 4
  store ptr %0, ptr %4, align 8, !tbaa !83
  store i32 %1, ptr %5, align 4, !tbaa !21
  store i32 %2, ptr %6, align 4, !tbaa !21
  call void @llvm.lifetime.start.p0(i64 8, ptr %7) #8
  call void @llvm.lifetime.start.p0(i64 8, ptr %8) #8
  store i64 -1, ptr %8, align 8, !tbaa !12
  %10 = load ptr, ptr %4, align 8, !tbaa !83
  %11 = getelementptr inbounds nuw %struct.client, ptr %10, i32 0, i32 8
  %12 = load ptr, ptr %11, align 8, !tbaa !97
  %13 = load ptr, ptr %4, align 8, !tbaa !83
  %14 = getelementptr inbounds nuw %struct.client, ptr %13, i32 0, i32 16
  %15 = load ptr, ptr %14, align 8, !tbaa !95
  %16 = getelementptr inbounds ptr, ptr %15, i64 1
  %17 = load ptr, ptr %16, align 8, !tbaa !16
  %18 = call ptr @lookupKeyReadWithFlags(ptr noundef %12, ptr noundef %17, i32 noundef 1)
  %19 = icmp eq ptr %18, null
  br i1 %19, label %20, label %22

20:                                               ; preds = %3
  %21 = load ptr, ptr %4, align 8, !tbaa !83
  call void @addReplyLongLong(ptr noundef %21, i64 noundef -2)
  store i32 1, ptr %9, align 4
  br label %67

22:                                               ; preds = %3
  %23 = load ptr, ptr %4, align 8, !tbaa !83
  %24 = getelementptr inbounds nuw %struct.client, ptr %23, i32 0, i32 8
  %25 = load ptr, ptr %24, align 8, !tbaa !97
  %26 = load ptr, ptr %4, align 8, !tbaa !83
  %27 = getelementptr inbounds nuw %struct.client, ptr %26, i32 0, i32 16
  %28 = load ptr, ptr %27, align 8, !tbaa !95
  %29 = getelementptr inbounds ptr, ptr %28, i64 1
  %30 = load ptr, ptr %29, align 8, !tbaa !16
  %31 = call i64 @getExpire(ptr noundef %25, ptr noundef %30)
  store i64 %31, ptr %7, align 8, !tbaa !12
  %32 = load i64, ptr %7, align 8, !tbaa !12
  %33 = icmp ne i64 %32, -1
  br i1 %33, label %34, label %49

34:                                               ; preds = %22
  %35 = load i32, ptr %6, align 4, !tbaa !21
  %36 = icmp ne i32 %35, 0
  br i1 %36, label %37, label %39

37:                                               ; preds = %34
  %38 = load i64, ptr %7, align 8, !tbaa !12
  br label %43

39:                                               ; preds = %34
  %40 = load i64, ptr %7, align 8, !tbaa !12
  %41 = call i64 @commandTimeSnapshot()
  %42 = sub nsw i64 %40, %41
  br label %43

43:                                               ; preds = %39, %37
  %44 = phi i64 [ %38, %37 ], [ %42, %39 ]
  store i64 %44, ptr %8, align 8, !tbaa !12
  %45 = load i64, ptr %8, align 8, !tbaa !12
  %46 = icmp slt i64 %45, 0
  br i1 %46, label %47, label %48

47:                                               ; preds = %43
  store i64 0, ptr %8, align 8, !tbaa !12
  br label %48

48:                                               ; preds = %47, %43
  br label %49

49:                                               ; preds = %48, %22
  %50 = load i64, ptr %8, align 8, !tbaa !12
  %51 = icmp eq i64 %50, -1
  br i1 %51, label %52, label %54

52:                                               ; preds = %49
  %53 = load ptr, ptr %4, align 8, !tbaa !83
  call void @addReplyLongLong(ptr noundef %53, i64 noundef -1)
  br label %66

54:                                               ; preds = %49
  %55 = load ptr, ptr %4, align 8, !tbaa !83
  %56 = load i32, ptr %5, align 4, !tbaa !21
  %57 = icmp ne i32 %56, 0
  br i1 %57, label %58, label %60

58:                                               ; preds = %54
  %59 = load i64, ptr %8, align 8, !tbaa !12
  br label %64

60:                                               ; preds = %54
  %61 = load i64, ptr %8, align 8, !tbaa !12
  %62 = add nsw i64 %61, 500
  %63 = sdiv i64 %62, 1000
  br label %64

64:                                               ; preds = %60, %58
  %65 = phi i64 [ %59, %58 ], [ %63, %60 ]
  call void @addReplyLongLong(ptr noundef %55, i64 noundef %65)
  br label %66

66:                                               ; preds = %64, %52
  store i32 0, ptr %9, align 4
  br label %67

67:                                               ; preds = %66, %20
  call void @llvm.lifetime.end.p0(i64 8, ptr %8) #8
  call void @llvm.lifetime.end.p0(i64 8, ptr %7) #8
  %68 = load i32, ptr %9, align 4
  switch i32 %68, label %70 [
    i32 0, label %69
    i32 1, label %69
  ]

69:                                               ; preds = %67, %67
  ret void

70:                                               ; preds = %67
  unreachable
}

; Function Attrs: nounwind uwtable
define dso_local void @ttlCommand(ptr noundef %0) #0 {
  %2 = alloca ptr, align 8
  store ptr %0, ptr %2, align 8, !tbaa !83
  %3 = load ptr, ptr %2, align 8, !tbaa !83
  call void @ttlGenericCommand(ptr noundef %3, i32 noundef 0, i32 noundef 0)
  ret void
}