; Function Attrs: nounwind uwtable
define dso_local void @ttlCommand(ptr noundef %0) local_unnamed_addr #0 {
  %2 = getelementptr inbounds nuw i8, ptr %0, i64 32
  %3 = load ptr, ptr %2, align 8, !tbaa !91
  %4 = getelementptr inbounds nuw i8, ptr %0, i64 96
  %5 = load ptr, ptr %4, align 8, !tbaa !88
  %6 = getelementptr inbounds nuw i8, ptr %5, i64 8
  %7 = load ptr, ptr %6, align 8, !tbaa !89
  %8 = tail call ptr @lookupKeyReadWithFlags(ptr noundef %3, ptr noundef %7, i32 noundef 1) #10
  %9 = icmp eq ptr %8, null
  br i1 %9, label %ttlGenericCommand.exit, label %10

10:                                               ; preds = %1
  %11 = load ptr, ptr %2, align 8, !tbaa !91
  %12 = load ptr, ptr %4, align 8, !tbaa !88
  %13 = getelementptr inbounds nuw i8, ptr %12, i64 8
  %14 = load ptr, ptr %13, align 8, !tbaa !89
  %15 = tail call i64 @getExpire(ptr noundef %11, ptr noundef %14) #10
  %.not.i = icmp eq i64 %15, -1
  br i1 %.not.i, label %ttlGenericCommand.exit, label %16

16:                                               ; preds = %10
  %17 = tail call i64 @commandTimeSnapshot() #10
  %18 = sub nsw i64 %15, %17
  %spec.store.select.i = tail call i64 @llvm.smax.i64(i64 %18, i64 0)
  %19 = add nuw nsw i64 %spec.store.select.i, 500
  %20 = udiv i64 %19, 1000
  br label %ttlGenericCommand.exit

ttlGenericCommand.exit:                           ; preds = %1, %10, %16
  %.sink.i = phi i64 [ -2, %1 ], [ -1, %10 ], [ %20, %16 ]
  tail call void @addReplyLongLong(ptr noundef nonnull %0, i64 noundef %.sink.i) #10
  ret void
}